target datalayout = "e-m:e-p270:32:32-p271:32:32-p272:64:64-i64:64-i128:128-f80:128-n8:16:32:64-S128"
target triple = "x86_64-pc-linux-gnu"

%struct.timespec = type { i64, i64 }

@.str.14 = private unnamed_addr constant [2 x i8] c"O\00", align 1
@.str.15 = private unnamed_addr constant [3 x i8] c"Nl\00", align 1

; Function Attrs: nounwind uwtable
define internal ptr @test_PyTime_AsTimespec_clamp(ptr noundef %0, ptr noundef %1) #0 {
  %3 = alloca ptr, align 8
  %4 = alloca ptr, align 8
  %5 = alloca ptr, align 8
  %6 = alloca ptr, align 8
  %7 = alloca i32, align 4
  %8 = alloca i64, align 8
  %9 = alloca %struct.timespec, align 8
  store ptr %0, ptr %4, align 8, !tbaa !3
  store ptr %1, ptr %5, align 8, !tbaa !3
  call void @llvm.lifetime.start.p0(i64 8, ptr %6) #3
  %10 = load ptr, ptr %5, align 8, !tbaa !3
  %11 = call i32 (ptr, ptr, ...) @PyArg_ParseTuple(ptr noundef %10, ptr noundef @.str.14, ptr noundef %6)
  %12 = icmp ne i32 %11, 0
  br i1 %12, label %14, label %13

13:                                               ; preds = %2
  store ptr null, ptr %3, align 8
  store i32 1, ptr %7, align 4
  br label %28

14:                                               ; preds = %2
  call void @llvm.lifetime.start.p0(i64 8, ptr %8) #3
  %15 = load ptr, ptr %6, align 8, !tbaa !3
  %16 = call i32 @_PyTime_FromLong(ptr noundef %8, ptr noundef %15)
  %17 = icmp slt i32 %16, 0
  br i1 %17, label %18, label %19

18:                                               ; preds = %14
  store ptr null, ptr %3, align 8
  store i32 1, ptr %7, align 4
  br label %27

19:                                               ; preds = %14
  call void @llvm.lifetime.start.p0(i64 16, ptr %9) #3
  %20 = load i64, ptr %8, align 8, !tbaa !10
  call void @_PyTime_AsTimespec_clamp(i64 noundef %20, ptr noundef %9)
  %21 = getelementptr inbounds nuw %struct.timespec, ptr %9, i32 0, i32 0
  %22 = load i64, ptr %21, align 8, !tbaa !12
  %23 = call ptr @_PyLong_FromTime_t(i64 noundef %22)
  %24 = getelementptr inbounds nuw %struct.timespec, ptr %9, i32 0, i32 1
  %25 = load i64, ptr %24, align 8, !tbaa !14
  %26 = call ptr (ptr, ...) @Py_BuildValue(ptr noundef @.str.15, ptr noundef %23, i64 noundef %25)
  store ptr %26, ptr %3, align 8
  store i32 1, ptr %7, align 4
  call void @llvm.lifetime.end.p0(i64 16, ptr %9) #3
  br label %27

27:                                               ; preds = %19, %18
  call void @llvm.lifetime.end.p0(i64 8, ptr %8) #3
  br label %28

28:                                               ; preds = %27, %13
  call void @llvm.lifetime.end.p0(i64 8, ptr %6) #3
  %29 = load ptr, ptr %3, align 8
  ret ptr %29
}